target datalayout = "e-m:e-p270:32:32-p271:32:32-p272:64:64-i64:64-i128:128-f80:128-n8:16:32:64-S128"
target triple = "x86_64-pc-linux-gnu"

%struct.H5FD_log_fapl_t = type { ptr, i64, i64 }
%struct.H5FD_log_t = type { %struct.H5FD_t, i32, i64, i64, i8, [1024 x i8], i64, i64, i8, ptr, ptr, ptr, i64, i64, i64, i64, double, double, double, double, i64, ptr, %struct.H5FD_log_fapl_t }
%struct.H5FD_t = type { i64, ptr, i64, i32, i64, i64, i64, i64, i64, i8 }

@H5FD_init_g = external global i8, align 1
@H5_libterm_g = external global i8, align 1

; Function Attrs: nounwind uwtable
define internal ptr @H5FD__log_fapl_get(ptr noundef %0) #0 {
  %2 = alloca ptr, align 8
  %3 = alloca ptr, align 8
  %4 = alloca ptr, align 8
  store ptr %0, ptr %2, align 8, !tbaa !24
  call void @llvm.lifetime.start.p0(i64 8, ptr %3) #9
  %5 = load ptr, ptr %2, align 8, !tbaa !24
  store ptr %5, ptr %3, align 8, !tbaa !26
  call void @llvm.lifetime.start.p0(i64 8, ptr %4) #9
  store ptr null, ptr %4, align 8, !tbaa !28
  %6 = load i8, ptr @H5FD_init_g, align 1, !tbaa !7, !range !9, !noundef !10
  %7 = trunc i8 %6 to i1
  br i1 %7, label %12, label %8

8:                                                ; preds = %1
  %9 = load i8, ptr @H5_libterm_g, align 1, !tbaa !7, !range !9, !noundef !10
  %10 = trunc i8 %9 to i1
  %11 = xor i1 %10, true
  br label %12

12:                                               ; preds = %8, %1
  %13 = phi i1 [ true, %1 ], [ %11, %8 ]
  %14 = xor i1 %13, true
  %15 = xor i1 %14, true
  %16 = zext i1 %15 to i32
  %17 = sext i32 %16 to i64
  %18 = call i64 @llvm.expect.i64(i64 %17, i64 1)
  %19 = icmp ne i64 %18, 0
  br i1 %19, label %20, label %24

20:                                               ; preds = %12
  %21 = load ptr, ptr %3, align 8, !tbaa !26
  %22 = getelementptr inbounds nuw %struct.H5FD_log_t, ptr %21, i32 0, i32 22
  %23 = call ptr @H5FD__log_fapl_copy(ptr noundef %22)
  store ptr %23, ptr %4, align 8, !tbaa !28
  br label %24

24:                                               ; preds = %20, %12
  %25 = load ptr, ptr %4, align 8, !tbaa !28
  call void @llvm.lifetime.end.p0(i64 8, ptr %4) #9
  call void @llvm.lifetime.end.p0(i64 8, ptr %3) #9
  ret ptr %25
}