; Function Attrs: nounwind uwtable
define internal noalias noundef ptr @H5FD__log_fapl_get(ptr noundef readonly captures(none) %0) #0 {
  %2 = load i8, ptr @H5FD_init_g, align 1, !tbaa !3, !range !7, !noundef !8
  %3 = trunc nuw i8 %2 to i1
  %4 = load i8, ptr @H5_libterm_g, align 1, !range !7
  %5 = trunc nuw i8 %4 to i1
  %6 = xor i1 %5, true
  %7 = select i1 %3, i1 true, i1 %6
  br i1 %7, label %8, label %11, !prof !9

8:                                                ; preds = %1
  %9 = getelementptr inbounds nuw i8, ptr %0, i64 1264
  %10 = tail call ptr @H5FD__log_fapl_copy(ptr noundef nonnull %9)
  br label %11

11:                                               ; preds = %8, %1
  %.0 = phi ptr [ %10, %8 ], [ null, %1 ]
  ret ptr %.0
}